;
; File generated by cc65 v 2.19 - Git 2085646
;
	.fopt		compiler,"cc65 v 2.19 - Git 2085646"
	.setcpu		"6502"
	.smart		on
	.autoimport	on
	.case		on
	.debuginfo	off
	.importzp	sp, sreg, regsave, regbank
	.importzp	tmp1, tmp2, tmp3, tmp4, ptr1, ptr2, ptr3, ptr4
	.macpack	longbranch
	.forceimport	__STARTUP__
	.import		_pal_bg
	.import		_pal_spr
	.import		_ppu_wait_nmi
	.import		_ppu_off
	.import		_ppu_on_all
	.import		_oam_clear
	.import		_oam_meta_spr
	.import		_pad_poll
	.import		_bank_spr
	.import		_vram_adr
	.import		_vram_write
	.export		_level1
	.export		_level2
	.export		_palette
	.export		_player_sprite_idle
	.export		_player_sprite_walk
	.export		_player_data
	.export		_pad1
	.export		_moving
	.export		_frame_counter
	.export		_anim_state
	.export		_current_level
	.export		_load_level
	.export		_draw
	.export		_move
	.export		_main

.segment	"DATA"

_player_data:
	.byte	$10
	.byte	$BF
	.byte	$10
	.byte	$10
_frame_counter:
	.byte	$00
_anim_state:
	.byte	$00
_current_level:
	.byte	$01

.segment	"RODATA"

_level1:
	.byte	$00
	.byte	$00
	.byte	$00
	.byte	$00
	.byte	$00
	.byte	$00
	.byte	$00
	.byte	$00
	.byte	$00
	.byte	$00
	.byte	$00
	.byte	$00
	.byte	$00
	.byte	$00
	.byte	$00
	.byte	$00
	.byte	$00
	.byte	$00
	.byte	$00
	.byte	$00
	.byte	$00
	.byte	$00
	.byte	$00
	.byte	$00
	.byte	$00
	.byte	$00
	.byte	$00
	.byte	$00
	.byte	$00
	.byte	$00
	.byte	$00
	.byte	$00
	.byte	$00
	.byte	$00
	.byte	$00
	.byte	$00
	.byte	$00
	.byte	$00
	.byte	$00
	.byte	$00
	.byte	$00
	.byte	$00
	.byte	$00
	.byte	$00
	.byte	$00
	.byte	$00
	.byte	$00
	.byte	$00
	.byte	$00
	.byte	$00
	.byte	$00
	.byte	$00
	.byte	$00
	.byte	$00
	.byte	$00
	.byte	$00
	.byte	$00
	.byte	$00
	.byte	$00
	.byte	$00
	.byte	$00
	.byte	$00
	.byte	$00
	.byte	$00
	.byte	$00
	.byte	$00
	.byte	$00
	.byte	$00
	.byte	$00
	.byte	$00
	.byte	$00
	.byte	$00
	.byte	$00
	.byte	$00
	.byte	$00
	.byte	$00
	.byte	$00
	.byte	$00
	.byte	$00
	.byte	$00
	.byte	$00
	.byte	$00
	.byte	$00
	.byte	$00
	.byte	$00
	.byte	$00
	.byte	$00
	.byte	$00
	.byte	$00
	.byte	$00
	.byte	$00
	.byte	$00
	.byte	$00
	.byte	$00
	.byte	$00
	.byte	$00
	.byte	$00
	.byte	$00
	.byte	$00
	.byte	$00
	.byte	$00
	.byte	$00
	.byte	$00
	.byte	$00
	.byte	$00
	.byte	$00
	.byte	$00
	.byte	$00
	.byte	$00
	.byte	$00
	.byte	$00
	.byte	$00
	.byte	$00
	.byte	$00
	.byte	$00
	.byte	$00
	.byte	$00
	.byte	$00
	.byte	$00
	.byte	$00
	.byte	$00
	.byte	$00
	.byte	$00
	.byte	$00
	.byte	$00
	.byte	$00
	.byte	$00
	.byte	$00
	.byte	$00
	.byte	$00
	.byte	$00
	.byte	$00
	.byte	$00
	.byte	$00
	.byte	$00
	.byte	$00
	.byte	$00
	.byte	$00
	.byte	$00
	.byte	$00
	.byte	$00
	.byte	$00
	.byte	$00
	.byte	$00
	.byte	$00
	.byte	$00
	.byte	$00
	.byte	$00
	.byte	$00
	.byte	$00
	.byte	$00
	.byte	$00
	.byte	$00
	.byte	$00
	.byte	$00
	.byte	$00
	.byte	$00
	.byte	$00
	.byte	$00
	.byte	$00
	.byte	$00
	.byte	$00
	.byte	$00
	.byte	$00
	.byte	$00
	.byte	$00
	.byte	$00
	.byte	$00
	.byte	$00
	.byte	$00
	.byte	$00
	.byte	$00
	.byte	$00
	.byte	$00
	.byte	$00
	.byte	$00
	.byte	$00
	.byte	$00
	.byte	$00
	.byte	$00
	.byte	$00
	.byte	$00
	.byte	$00
	.byte	$00
	.byte	$00
	.byte	$00
	.byte	$00
	.byte	$00
	.byte	$00
	.byte	$00
	.byte	$00
	.byte	$00
	.byte	$00
	.byte	$00
	.byte	$00
	.byte	$00
	.byte	$00
	.byte	$00
	.byte	$00
	.byte	$00
	.byte	$00
	.byte	$00
	.byte	$00
	.byte	$00
	.byte	$00
	.byte	$00
	.byte	$00
	.byte	$00
	.byte	$00
	.byte	$00
	.byte	$00
	.byte	$00
	.byte	$00
	.byte	$00
	.byte	$00
	.byte	$00
	.byte	$00
	.byte	$00
	.byte	$00
	.byte	$00
	.byte	$00
	.byte	$00
	.byte	$00
	.byte	$00
	.byte	$00
	.byte	$00
	.byte	$00
	.byte	$00
	.byte	$00
	.byte	$00
	.byte	$00
	.byte	$00
	.byte	$00
	.byte	$00
	.byte	$00
	.byte	$00
	.byte	$00
	.byte	$00
	.byte	$00
	.byte	$00
	.byte	$00
	.byte	$00
	.byte	$00
	.byte	$00
	.byte	$00
	.byte	$00
	.byte	$00
	.byte	$00
	.byte	$00
	.byte	$00
	.byte	$00
	.byte	$00
	.byte	$00
	.byte	$00
	.byte	$00
	.byte	$00
	.byte	$00
	.byte	$00
	.byte	$00
	.byte	$00
	.byte	$00
	.byte	$00
	.byte	$00
	.byte	$00
	.byte	$00
	.byte	$00
	.byte	$00
	.byte	$00
	.byte	$00
	.byte	$00
	.byte	$00
	.byte	$00
	.byte	$00
	.byte	$00
	.byte	$00
	.byte	$00
	.byte	$00
	.byte	$00
	.byte	$00
	.byte	$00
	.byte	$00
	.byte	$00
	.byte	$00
	.byte	$00
	.byte	$00
	.byte	$00
	.byte	$00
	.byte	$00
	.byte	$00
	.byte	$00
	.byte	$00
	.byte	$00
	.byte	$00
	.byte	$00
	.byte	$00
	.byte	$00
	.byte	$00
	.byte	$00
	.byte	$00
	.byte	$00
	.byte	$00
	.byte	$00
	.byte	$00
	.byte	$00
	.byte	$00
	.byte	$00
	.byte	$00
	.byte	$00
	.byte	$00
	.byte	$00
	.byte	$00
	.byte	$00
	.byte	$00
	.byte	$00
	.byte	$00
	.byte	$00
	.byte	$00
	.byte	$00
	.byte	$00
	.byte	$00
	.byte	$00
	.byte	$00
	.byte	$00
	.byte	$00
	.byte	$00
	.byte	$00
	.byte	$00
	.byte	$00
	.byte	$00
	.byte	$00
	.byte	$00
	.byte	$00
	.byte	$00
	.byte	$00
	.byte	$00
	.byte	$00
	.byte	$00
	.byte	$00
	.byte	$00
	.byte	$00
	.byte	$00
	.byte	$00
	.byte	$00
	.byte	$00
	.byte	$00
	.byte	$00
	.byte	$00
	.byte	$00
	.byte	$00
	.byte	$00
	.byte	$00
	.byte	$00
	.byte	$00
	.byte	$00
	.byte	$00
	.byte	$00
	.byte	$00
	.byte	$00
	.byte	$00
	.byte	$00
	.byte	$00
	.byte	$00
	.byte	$00
	.byte	$00
	.byte	$00
	.byte	$00
	.byte	$00
	.byte	$00
	.byte	$00
	.byte	$00
	.byte	$00
	.byte	$00
	.byte	$00
	.byte	$00
	.byte	$00
	.byte	$00
	.byte	$00
	.byte	$00
	.byte	$00
	.byte	$00
	.byte	$00
	.byte	$00
	.byte	$00
	.byte	$00
	.byte	$00
	.byte	$00
	.byte	$00
	.byte	$00
	.byte	$00
	.byte	$00
	.byte	$00
	.byte	$00
	.byte	$00
	.byte	$00
	.byte	$00
	.byte	$00
	.byte	$00
	.byte	$00
	.byte	$00
	.byte	$00
	.byte	$00
	.byte	$00
	.byte	$00
	.byte	$00
	.byte	$00
	.byte	$00
	.byte	$00
	.byte	$00
	.byte	$00
	.byte	$00
	.byte	$00
	.byte	$00
	.byte	$00
	.byte	$00
	.byte	$00
	.byte	$00
	.byte	$00
	.byte	$00
	.byte	$00
	.byte	$00
	.byte	$00
	.byte	$00
	.byte	$00
	.byte	$00
	.byte	$00
	.byte	$00
	.byte	$00
	.byte	$00
	.byte	$00
	.byte	$00
	.byte	$00
	.byte	$00
	.byte	$00
	.byte	$00
	.byte	$00
	.byte	$00
	.byte	$00
	.byte	$00
	.byte	$00
	.byte	$00
	.byte	$00
	.byte	$00
	.byte	$00
	.byte	$00
	.byte	$00
	.byte	$00
	.byte	$00
	.byte	$00
	.byte	$00
	.byte	$00
	.byte	$00
	.byte	$00
	.byte	$00
	.byte	$00
	.byte	$00
	.byte	$00
	.byte	$00
	.byte	$00
	.byte	$00
	.byte	$00
	.byte	$00
	.byte	$00
	.byte	$00
	.byte	$00
	.byte	$00
	.byte	$00
	.byte	$00
	.byte	$00
	.byte	$00
	.byte	$00
	.byte	$00
	.byte	$00
	.byte	$00
	.byte	$00
	.byte	$00
	.byte	$00
	.byte	$00
	.byte	$00
	.byte	$00
	.byte	$00
	.byte	$00
	.byte	$00
	.byte	$00
	.byte	$00
	.byte	$00
	.byte	$00
	.byte	$00
	.byte	$00
	.byte	$00
	.byte	$00
	.byte	$00
	.byte	$00
	.byte	$00
	.byte	$00
	.byte	$00
	.byte	$00
	.byte	$00
	.byte	$00
	.byte	$00
	.byte	$00
	.byte	$00
	.byte	$02
	.byte	$03
	.byte	$00
	.byte	$00
	.byte	$00
	.byte	$00
	.byte	$00
	.byte	$00
	.byte	$00
	.byte	$00
	.byte	$00
	.byte	$00
	.byte	$00
	.byte	$00
	.byte	$00
	.byte	$00
	.byte	$00
	.byte	$00
	.byte	$00
	.byte	$00
	.byte	$02
	.byte	$03
	.byte	$00
	.byte	$00
	.byte	$00
	.byte	$04
	.byte	$05
	.byte	$06
	.byte	$00
	.byte	$00
	.byte	$00
	.byte	$20
	.byte	$12
	.byte	$13
	.byte	$00
	.byte	$00
	.byte	$00
	.byte	$00
	.byte	$00
	.byte	$00
	.byte	$00
	.byte	$00
	.byte	$00
	.byte	$00
	.byte	$00
	.byte	$00
	.byte	$00
	.byte	$00
	.byte	$00
	.byte	$00
	.byte	$00
	.byte	$00
	.byte	$12
	.byte	$13
	.byte	$00
	.byte	$00
	.byte	$00
	.byte	$14
	.byte	$15
	.byte	$16
	.byte	$00
	.byte	$00
	.byte	$00
	.byte	$00
	.byte	$00
	.byte	$00
	.byte	$00
	.byte	$00
	.byte	$00
	.byte	$00
	.byte	$00
	.byte	$00
	.byte	$00
	.byte	$00
	.byte	$00
	.byte	$00
	.byte	$00
	.byte	$00
	.byte	$00
	.byte	$00
	.byte	$00
	.byte	$00
	.byte	$00
	.byte	$00
	.byte	$00
	.byte	$00
	.byte	$00
	.byte	$00
	.byte	$00
	.byte	$14
	.byte	$15
	.byte	$16
	.byte	$00
	.byte	$00
	.byte	$00
	.byte	$00
	.byte	$00
	.byte	$00
	.byte	$00
	.byte	$00
	.byte	$00
	.byte	$00
	.byte	$00
	.byte	$00
	.byte	$00
	.byte	$00
	.byte	$00
	.byte	$00
	.byte	$00
	.byte	$00
	.byte	$00
	.byte	$00
	.byte	$00
	.byte	$00
	.byte	$00
	.byte	$00
	.byte	$00
	.byte	$00
	.byte	$00
	.byte	$00
	.byte	$00
	.byte	$14
	.byte	$15
	.byte	$16
	.byte	$00
	.byte	$00
	.byte	$00
	.byte	$00
	.byte	$00
	.byte	$00
	.byte	$00
	.byte	$00
	.byte	$00
	.byte	$07
	.byte	$08
	.byte	$18
	.byte	$00
	.byte	$00
	.byte	$00
	.byte	$00
	.byte	$00
	.byte	$00
	.byte	$07
	.byte	$08
	.byte	$18
	.byte	$00
	.byte	$00
	.byte	$00
	.byte	$00
	.byte	$00
	.byte	$00
	.byte	$00
	.byte	$00
	.byte	$14
	.byte	$15
	.byte	$16
	.byte	$00
	.byte	$00
	.byte	$00
	.byte	$00
	.byte	$00
	.byte	$00
	.byte	$00
	.byte	$00
	.byte	$00
	.byte	$00
	.byte	$11
	.byte	$00
	.byte	$00
	.byte	$00
	.byte	$00
	.byte	$00
	.byte	$00
	.byte	$00
	.byte	$00
	.byte	$11
	.byte	$00
	.byte	$00
	.byte	$00
	.byte	$00
	.byte	$00
	.byte	$00
	.byte	$00
	.byte	$04
	.byte	$10
	.byte	$10
	.byte	$10
	.byte	$10
	.byte	$05
	.byte	$10
	.byte	$10
	.byte	$06
	.byte	$00
	.byte	$00
	.byte	$00
	.byte	$00
	.byte	$00
	.byte	$00
	.byte	$17
	.byte	$00
	.byte	$00
	.byte	$00
	.byte	$00
	.byte	$00
	.byte	$00
	.byte	$00
	.byte	$00
	.byte	$17
	.byte	$00
	.byte	$00
	.byte	$00
	.byte	$04
	.byte	$10
	.byte	$05
	.byte	$10
	.byte	$14
	.byte	$15
	.byte	$15
	.byte	$15
	.byte	$15
	.byte	$15
	.byte	$15
	.byte	$15
	.byte	$16
	.byte	$00
	.byte	$00
	.byte	$00
	.byte	$00
	.byte	$00
	.byte	$00
	.byte	$17
	.byte	$00
	.byte	$00
	.byte	$00
	.byte	$00
	.byte	$00
	.byte	$07
	.byte	$08
	.byte	$18
	.byte	$17
	.byte	$00
	.byte	$00
	.byte	$00
	.byte	$14
	.byte	$15
	.byte	$15
	.byte	$15
	.byte	$14
	.byte	$15
	.byte	$15
	.byte	$15
	.byte	$15
	.byte	$15
	.byte	$15
	.byte	$15
	.byte	$16
	.byte	$00
	.byte	$00
	.byte	$00
	.byte	$07
	.byte	$08
	.byte	$18
	.byte	$17
	.byte	$00
	.byte	$00
	.byte	$00
	.byte	$00
	.byte	$00
	.byte	$00
	.byte	$11
	.byte	$00
	.byte	$17
	.byte	$00
	.byte	$00
	.byte	$00
	.byte	$14
	.byte	$15
	.byte	$15
	.byte	$15
	.byte	$14
	.byte	$15
	.byte	$15
	.byte	$15
	.byte	$15
	.byte	$15
	.byte	$15
	.byte	$15
	.byte	$16
	.byte	$00
	.byte	$00
	.byte	$00
	.byte	$00
	.byte	$11
	.byte	$00
	.byte	$17
	.byte	$07
	.byte	$08
	.byte	$18
	.byte	$00
	.byte	$00
	.byte	$00
	.byte	$17
	.byte	$00
	.byte	$17
	.byte	$00
	.byte	$00
	.byte	$00
	.byte	$14
	.byte	$15
	.byte	$15
	.byte	$15
	.byte	$14
	.byte	$15
	.byte	$15
	.byte	$15
	.byte	$15
	.byte	$15
	.byte	$15
	.byte	$15
	.byte	$16
	.byte	$00
	.byte	$00
	.byte	$00
	.byte	$00
	.byte	$17
	.byte	$00
	.byte	$17
	.byte	$00
	.byte	$11
	.byte	$00
	.byte	$00
	.byte	$01
	.byte	$01
	.byte	$01
	.byte	$01
	.byte	$01
	.byte	$01
	.byte	$01
	.byte	$01
	.byte	$01
	.byte	$01
	.byte	$01
	.byte	$01
	.byte	$01
	.byte	$01
	.byte	$01
	.byte	$01
	.byte	$01
	.byte	$01
	.byte	$01
	.byte	$01
	.byte	$01
	.byte	$01
	.byte	$01
	.byte	$01
	.byte	$01
	.byte	$01
	.byte	$01
	.byte	$01
	.byte	$01
	.byte	$01
	.byte	$01
	.byte	$01
	.byte	$01
	.byte	$01
	.byte	$01
	.byte	$01
	.byte	$01
	.byte	$01
	.byte	$01
	.byte	$01
	.byte	$01
	.byte	$01
	.byte	$01
	.byte	$01
	.byte	$01
	.byte	$01
	.byte	$01
	.byte	$01
	.byte	$01
	.byte	$01
	.byte	$01
	.byte	$01
	.byte	$01
	.byte	$01
	.byte	$01
	.byte	$01
	.byte	$01
	.byte	$01
	.byte	$01
	.byte	$01
	.byte	$01
	.byte	$01
	.byte	$01
	.byte	$01
	.byte	$01
	.byte	$01
	.byte	$01
	.byte	$01
	.byte	$01
	.byte	$01
	.byte	$01
	.byte	$01
	.byte	$01
	.byte	$01
	.byte	$01
	.byte	$01
	.byte	$01
	.byte	$01
	.byte	$01
	.byte	$01
	.byte	$01
	.byte	$01
	.byte	$01
	.byte	$01
	.byte	$01
	.byte	$01
	.byte	$01
	.byte	$01
	.byte	$01
	.byte	$01
	.byte	$01
	.byte	$01
	.byte	$01
	.byte	$01
	.byte	$01
	.byte	$01
	.byte	$01
	.byte	$01
	.byte	$01
	.byte	$01
	.byte	$01
	.byte	$01
	.byte	$01
	.byte	$01
	.byte	$01
	.byte	$01
	.byte	$01
	.byte	$01
	.byte	$01
	.byte	$01
	.byte	$01
	.byte	$01
	.byte	$01
	.byte	$01
	.byte	$01
	.byte	$01
	.byte	$01
	.byte	$01
	.byte	$01
	.byte	$01
	.byte	$01
	.byte	$01
	.byte	$01
	.byte	$01
	.byte	$01
	.byte	$01
	.byte	$01
	.byte	$01
	.byte	$00
	.byte	$00
	.byte	$00
	.byte	$00
	.byte	$00
	.byte	$00
	.byte	$00
	.byte	$00
	.byte	$00
	.byte	$00
	.byte	$00
	.byte	$00
	.byte	$00
	.byte	$00
	.byte	$00
	.byte	$00
	.byte	$00
	.byte	$00
	.byte	$00
	.byte	$00
	.byte	$00
	.byte	$00
	.byte	$00
	.byte	$00
	.byte	$00
	.byte	$00
	.byte	$00
	.byte	$00
	.byte	$00
	.byte	$A0
	.byte	$00
	.byte	$00
	.byte	$00
	.byte	$00
	.byte	$0A
	.byte	$CC
	.byte	$33
	.byte	$0A
	.byte	$40
	.byte	$10
	.byte	$54
	.byte	$11
	.byte	$F0
	.byte	$FF
	.byte	$FF
	.byte	$33
	.byte	$54
	.byte	$00
	.byte	$A4
	.byte	$A1
	.byte	$AF
	.byte	$AF
	.byte	$AF
	.byte	$A3
	.byte	$A5
	.byte	$A5
	.byte	$0A
	.byte	$0A
	.byte	$0A
	.byte	$0A
	.byte	$0A
	.byte	$0A
	.byte	$0A
	.byte	$0A
_level2:
	.byte	$00
	.byte	$00
	.byte	$00
	.byte	$00
	.byte	$00
	.byte	$00
	.byte	$00
	.byte	$00
	.byte	$00
	.byte	$00
	.byte	$00
	.byte	$00
	.byte	$00
	.byte	$00
	.byte	$00
	.byte	$00
	.byte	$00
	.byte	$00
	.byte	$00
	.byte	$00
	.byte	$00
	.byte	$00
	.byte	$00
	.byte	$00
	.byte	$00
	.byte	$00
	.byte	$00
	.byte	$00
	.byte	$00
	.byte	$00
	.byte	$00
	.byte	$00
	.byte	$00
	.byte	$00
	.byte	$00
	.byte	$00
	.byte	$00
	.byte	$00
	.byte	$00
	.byte	$00
	.byte	$00
	.byte	$00
	.byte	$00
	.byte	$00
	.byte	$00
	.byte	$00
	.byte	$00
	.byte	$00
	.byte	$00
	.byte	$00
	.byte	$00
	.byte	$00
	.byte	$00
	.byte	$00
	.byte	$00
	.byte	$00
	.byte	$00
	.byte	$00
	.byte	$00
	.byte	$00
	.byte	$00
	.byte	$00
	.byte	$00
	.byte	$00
	.byte	$00
	.byte	$00
	.byte	$00
	.byte	$00
	.byte	$00
	.byte	$00
	.byte	$00
	.byte	$00
	.byte	$00
	.byte	$00
	.byte	$00
	.byte	$00
	.byte	$00
	.byte	$00
	.byte	$00
	.byte	$00
	.byte	$00
	.byte	$00
	.byte	$00
	.byte	$00
	.byte	$00
	.byte	$00
	.byte	$00
	.byte	$00
	.byte	$00
	.byte	$00
	.byte	$00
	.byte	$00
	.byte	$00
	.byte	$00
	.byte	$00
	.byte	$00
	.byte	$00
	.byte	$00
	.byte	$00
	.byte	$00
	.byte	$00
	.byte	$00
	.byte	$00
	.byte	$00
	.byte	$00
	.byte	$00
	.byte	$00
	.byte	$00
	.byte	$00
	.byte	$00
	.byte	$00
	.byte	$00
	.byte	$00
	.byte	$00
	.byte	$00
	.byte	$00
	.byte	$00
	.byte	$00
	.byte	$00
	.byte	$00
	.byte	$00
	.byte	$00
	.byte	$00
	.byte	$00
	.byte	$00
	.byte	$00
	.byte	$00
	.byte	$00
	.byte	$00
	.byte	$00
	.byte	$00
	.byte	$00
	.byte	$00
	.byte	$00
	.byte	$00
	.byte	$00
	.byte	$00
	.byte	$00
	.byte	$00
	.byte	$00
	.byte	$00
	.byte	$00
	.byte	$00
	.byte	$00
	.byte	$00
	.byte	$00
	.byte	$00
	.byte	$00
	.byte	$00
	.byte	$00
	.byte	$00
	.byte	$00
	.byte	$00
	.byte	$00
	.byte	$00
	.byte	$00
	.byte	$00
	.byte	$00
	.byte	$00
	.byte	$00
	.byte	$00
	.byte	$00
	.byte	$00
	.byte	$00
	.byte	$00
	.byte	$00
	.byte	$00
	.byte	$00
	.byte	$00
	.byte	$00
	.byte	$00
	.byte	$00
	.byte	$00
	.byte	$00
	.byte	$00
	.byte	$00
	.byte	$00
	.byte	$00
	.byte	$00
	.byte	$00
	.byte	$00
	.byte	$00
	.byte	$00
	.byte	$00
	.byte	$00
	.byte	$00
	.byte	$00
	.byte	$00
	.byte	$00
	.byte	$00
	.byte	$00
	.byte	$00
	.byte	$00
	.byte	$00
	.byte	$00
	.byte	$00
	.byte	$00
	.byte	$00
	.byte	$00
	.byte	$00
	.byte	$00
	.byte	$00
	.byte	$00
	.byte	$00
	.byte	$00
	.byte	$00
	.byte	$00
	.byte	$00
	.byte	$00
	.byte	$00
	.byte	$00
	.byte	$00
	.byte	$00
	.byte	$00
	.byte	$00
	.byte	$00
	.byte	$00
	.byte	$00
	.byte	$00
	.byte	$00
	.byte	$00
	.byte	$00
	.byte	$00
	.byte	$00
	.byte	$00
	.byte	$00
	.byte	$00
	.byte	$00
	.byte	$00
	.byte	$00
	.byte	$00
	.byte	$00
	.byte	$00
	.byte	$00
	.byte	$00
	.byte	$00
	.byte	$00
	.byte	$00
	.byte	$00
	.byte	$00
	.byte	$00
	.byte	$00
	.byte	$00
	.byte	$00
	.byte	$00
	.byte	$00
	.byte	$00
	.byte	$00
	.byte	$00
	.byte	$00
	.byte	$00
	.byte	$00
	.byte	$00
	.byte	$00
	.byte	$00
	.byte	$00
	.byte	$00
	.byte	$00
	.byte	$00
	.byte	$00
	.byte	$00
	.byte	$00
	.byte	$00
	.byte	$00
	.byte	$00
	.byte	$00
	.byte	$00
	.byte	$00
	.byte	$00
	.byte	$00
	.byte	$00
	.byte	$00
	.byte	$00
	.byte	$00
	.byte	$00
	.byte	$00
	.byte	$00
	.byte	$00
	.byte	$00
	.byte	$00
	.byte	$00
	.byte	$00
	.byte	$00
	.byte	$00
	.byte	$00
	.byte	$00
	.byte	$00
	.byte	$00
	.byte	$00
	.byte	$00
	.byte	$00
	.byte	$00
	.byte	$00
	.byte	$00
	.byte	$00
	.byte	$00
	.byte	$00
	.byte	$00
	.byte	$00
	.byte	$00
	.byte	$00
	.byte	$00
	.byte	$00
	.byte	$00
	.byte	$00
	.byte	$00
	.byte	$00
	.byte	$00
	.byte	$00
	.byte	$00
	.byte	$00
	.byte	$00
	.byte	$00
	.byte	$00
	.byte	$00
	.byte	$00
	.byte	$00
	.byte	$00
	.byte	$00
	.byte	$00
	.byte	$00
	.byte	$00
	.byte	$00
	.byte	$00
	.byte	$00
	.byte	$00
	.byte	$00
	.byte	$00
	.byte	$00
	.byte	$00
	.byte	$00
	.byte	$00
	.byte	$00
	.byte	$00
	.byte	$00
	.byte	$00
	.byte	$00
	.byte	$00
	.byte	$00
	.byte	$00
	.byte	$00
	.byte	$00
	.byte	$00
	.byte	$00
	.byte	$00
	.byte	$00
	.byte	$00
	.byte	$00
	.byte	$00
	.byte	$00
	.byte	$00
	.byte	$00
	.byte	$00
	.byte	$00
	.byte	$00
	.byte	$00
	.byte	$00
	.byte	$00
	.byte	$00
	.byte	$00
	.byte	$00
	.byte	$00
	.byte	$00
	.byte	$00
	.byte	$00
	.byte	$00
	.byte	$00
	.byte	$00
	.byte	$00
	.byte	$00
	.byte	$00
	.byte	$00
	.byte	$00
	.byte	$00
	.byte	$00
	.byte	$00
	.byte	$00
	.byte	$00
	.byte	$00
	.byte	$00
	.byte	$00
	.byte	$00
	.byte	$00
	.byte	$00
	.byte	$00
	.byte	$00
	.byte	$00
	.byte	$00
	.byte	$00
	.byte	$00
	.byte	$00
	.byte	$00
	.byte	$00
	.byte	$00
	.byte	$00
	.byte	$00
	.byte	$00
	.byte	$00
	.byte	$00
	.byte	$00
	.byte	$00
	.byte	$00
	.byte	$00
	.byte	$00
	.byte	$02
	.byte	$03
	.byte	$00
	.byte	$00
	.byte	$00
	.byte	$00
	.byte	$00
	.byte	$00
	.byte	$00
	.byte	$00
	.byte	$00
	.byte	$00
	.byte	$00
	.byte	$00
	.byte	$00
	.byte	$00
	.byte	$00
	.byte	$00
	.byte	$00
	.byte	$00
	.byte	$00
	.byte	$00
	.byte	$00
	.byte	$00
	.byte	$00
	.byte	$00
	.byte	$00
	.byte	$00
	.byte	$00
	.byte	$00
	.byte	$00
	.byte	$00
	.byte	$12
	.byte	$13
	.byte	$00
	.byte	$00
	.byte	$00
	.byte	$00
	.byte	$00
	.byte	$00
	.byte	$00
	.byte	$00
	.byte	$00
	.byte	$00
	.byte	$00
	.byte	$00
	.byte	$00
	.byte	$00
	.byte	$00
	.byte	$00
	.byte	$00
	.byte	$00
	.byte	$00
	.byte	$00
	.byte	$00
	.byte	$00
	.byte	$00
	.byte	$00
	.byte	$00
	.byte	$00
	.byte	$00
	.byte	$00
	.byte	$00
	.byte	$00
	.byte	$00
	.byte	$00
	.byte	$00
	.byte	$00
	.byte	$00
	.byte	$00
	.byte	$00
	.byte	$00
	.byte	$00
	.byte	$00
	.byte	$00
	.byte	$00
	.byte	$00
	.byte	$00
	.byte	$00
	.byte	$00
	.byte	$00
	.byte	$00
	.byte	$00
	.byte	$00
	.byte	$00
	.byte	$00
	.byte	$00
	.byte	$00
	.byte	$00
	.byte	$00
	.byte	$07
	.byte	$08
	.byte	$18
	.byte	$00
	.byte	$00
	.byte	$00
	.byte	$00
	.byte	$00
	.byte	$00
	.byte	$00
	.byte	$00
	.byte	$00
	.byte	$02
	.byte	$03
	.byte	$00
	.byte	$00
	.byte	$00
	.byte	$00
	.byte	$00
	.byte	$00
	.byte	$00
	.byte	$00
	.byte	$00
	.byte	$00
	.byte	$00
	.byte	$00
	.byte	$00
	.byte	$00
	.byte	$00
	.byte	$00
	.byte	$00
	.byte	$00
	.byte	$00
	.byte	$11
	.byte	$00
	.byte	$00
	.byte	$00
	.byte	$00
	.byte	$00
	.byte	$00
	.byte	$00
	.byte	$00
	.byte	$00
	.byte	$00
	.byte	$12
	.byte	$13
	.byte	$00
	.byte	$00
	.byte	$00
	.byte	$00
	.byte	$00
	.byte	$00
	.byte	$00
	.byte	$00
	.byte	$02
	.byte	$03
	.byte	$00
	.byte	$00
	.byte	$00
	.byte	$00
	.byte	$07
	.byte	$08
	.byte	$18
	.byte	$00
	.byte	$00
	.byte	$17
	.byte	$00
	.byte	$00
	.byte	$00
	.byte	$04
	.byte	$10
	.byte	$05
	.byte	$10
	.byte	$10
	.byte	$06
	.byte	$00
	.byte	$00
	.byte	$00
	.byte	$00
	.byte	$00
	.byte	$00
	.byte	$00
	.byte	$00
	.byte	$00
	.byte	$00
	.byte	$00
	.byte	$12
	.byte	$13
	.byte	$00
	.byte	$00
	.byte	$00
	.byte	$00
	.byte	$00
	.byte	$11
	.byte	$00
	.byte	$00
	.byte	$00
	.byte	$17
	.byte	$00
	.byte	$00
	.byte	$00
	.byte	$14
	.byte	$15
	.byte	$15
	.byte	$15
	.byte	$15
	.byte	$16
	.byte	$00
	.byte	$00
	.byte	$00
	.byte	$00
	.byte	$00
	.byte	$00
	.byte	$00
	.byte	$00
	.byte	$00
	.byte	$00
	.byte	$00
	.byte	$00
	.byte	$00
	.byte	$00
	.byte	$00
	.byte	$00
	.byte	$00
	.byte	$00
	.byte	$17
	.byte	$00
	.byte	$00
	.byte	$00
	.byte	$17
	.byte	$00
	.byte	$00
	.byte	$00
	.byte	$14
	.byte	$15
	.byte	$15
	.byte	$15
	.byte	$15
	.byte	$16
	.byte	$00
	.byte	$00
	.byte	$00
	.byte	$00
	.byte	$00
	.byte	$00
	.byte	$00
	.byte	$00
	.byte	$00
	.byte	$00
	.byte	$00
	.byte	$00
	.byte	$00
	.byte	$00
	.byte	$00
	.byte	$00
	.byte	$00
	.byte	$00
	.byte	$17
	.byte	$00
	.byte	$00
	.byte	$00
	.byte	$17
	.byte	$00
	.byte	$00
	.byte	$00
	.byte	$14
	.byte	$15
	.byte	$15
	.byte	$15
	.byte	$15
	.byte	$16
	.byte	$00
	.byte	$00
	.byte	$00
	.byte	$00
	.byte	$00
	.byte	$00
	.byte	$00
	.byte	$00
	.byte	$00
	.byte	$00
	.byte	$07
	.byte	$08
	.byte	$18
	.byte	$00
	.byte	$00
	.byte	$00
	.byte	$00
	.byte	$00
	.byte	$17
	.byte	$07
	.byte	$08
	.byte	$18
	.byte	$17
	.byte	$00
	.byte	$00
	.byte	$04
	.byte	$10
	.byte	$10
	.byte	$10
	.byte	$10
	.byte	$10
	.byte	$10
	.byte	$05
	.byte	$10
	.byte	$06
	.byte	$00
	.byte	$00
	.byte	$00
	.byte	$00
	.byte	$00
	.byte	$00
	.byte	$00
	.byte	$00
	.byte	$11
	.byte	$00
	.byte	$00
	.byte	$00
	.byte	$00
	.byte	$00
	.byte	$00
	.byte	$17
	.byte	$00
	.byte	$11
	.byte	$00
	.byte	$17
	.byte	$00
	.byte	$00
	.byte	$14
	.byte	$15
	.byte	$15
	.byte	$15
	.byte	$15
	.byte	$15
	.byte	$15
	.byte	$15
	.byte	$15
	.byte	$16
	.byte	$00
	.byte	$00
	.byte	$00
	.byte	$00
	.byte	$00
	.byte	$00
	.byte	$00
	.byte	$00
	.byte	$17
	.byte	$07
	.byte	$08
	.byte	$18
	.byte	$00
	.byte	$00
	.byte	$00
	.byte	$17
	.byte	$00
	.byte	$17
	.byte	$00
	.byte	$17
	.byte	$00
	.byte	$00
	.byte	$14
	.byte	$15
	.byte	$15
	.byte	$15
	.byte	$15
	.byte	$15
	.byte	$15
	.byte	$15
	.byte	$15
	.byte	$16
	.byte	$00
	.byte	$00
	.byte	$00
	.byte	$00
	.byte	$00
	.byte	$00
	.byte	$00
	.byte	$00
	.byte	$17
	.byte	$00
	.byte	$11
	.byte	$00
	.byte	$00
	.byte	$00
	.byte	$00
	.byte	$17
	.byte	$00
	.byte	$17
	.byte	$00
	.byte	$17
	.byte	$00
	.byte	$00
	.byte	$14
	.byte	$15
	.byte	$15
	.byte	$15
	.byte	$15
	.byte	$15
	.byte	$15
	.byte	$15
	.byte	$15
	.byte	$16
	.byte	$00
	.byte	$00
	.byte	$00
	.byte	$00
	.byte	$00
	.byte	$00
	.byte	$00
	.byte	$00
	.byte	$17
	.byte	$00
	.byte	$17
	.byte	$00
	.byte	$00
	.byte	$00
	.byte	$00
	.byte	$17
	.byte	$00
	.byte	$17
	.byte	$00
	.byte	$17
	.byte	$00
	.byte	$00
	.byte	$14
	.byte	$15
	.byte	$15
	.byte	$15
	.byte	$15
	.byte	$15
	.byte	$15
	.byte	$15
	.byte	$15
	.byte	$16
	.byte	$00
	.byte	$00
	.byte	$00
	.byte	$00
	.byte	$01
	.byte	$01
	.byte	$01
	.byte	$01
	.byte	$01
	.byte	$01
	.byte	$01
	.byte	$01
	.byte	$01
	.byte	$01
	.byte	$01
	.byte	$01
	.byte	$01
	.byte	$01
	.byte	$01
	.byte	$01
	.byte	$01
	.byte	$01
	.byte	$01
	.byte	$01
	.byte	$01
	.byte	$01
	.byte	$01
	.byte	$01
	.byte	$01
	.byte	$01
	.byte	$01
	.byte	$01
	.byte	$01
	.byte	$01
	.byte	$01
	.byte	$01
	.byte	$01
	.byte	$01
	.byte	$01
	.byte	$01
	.byte	$01
	.byte	$01
	.byte	$01
	.byte	$01
	.byte	$01
	.byte	$01
	.byte	$01
	.byte	$01
	.byte	$01
	.byte	$01
	.byte	$01
	.byte	$01
	.byte	$01
	.byte	$01
	.byte	$01
	.byte	$01
	.byte	$01
	.byte	$01
	.byte	$01
	.byte	$01
	.byte	$01
	.byte	$01
	.byte	$01
	.byte	$01
	.byte	$01
	.byte	$01
	.byte	$01
	.byte	$01
	.byte	$01
	.byte	$01
	.byte	$01
	.byte	$01
	.byte	$01
	.byte	$01
	.byte	$01
	.byte	$01
	.byte	$01
	.byte	$01
	.byte	$01
	.byte	$01
	.byte	$01
	.byte	$01
	.byte	$01
	.byte	$01
	.byte	$01
	.byte	$01
	.byte	$01
	.byte	$01
	.byte	$01
	.byte	$01
	.byte	$01
	.byte	$01
	.byte	$01
	.byte	$01
	.byte	$01
	.byte	$01
	.byte	$01
	.byte	$01
	.byte	$01
	.byte	$01
	.byte	$01
	.byte	$01
	.byte	$01
	.byte	$01
	.byte	$01
	.byte	$01
	.byte	$01
	.byte	$01
	.byte	$01
	.byte	$01
	.byte	$01
	.byte	$01
	.byte	$01
	.byte	$01
	.byte	$01
	.byte	$01
	.byte	$01
	.byte	$01
	.byte	$01
	.byte	$01
	.byte	$01
	.byte	$01
	.byte	$01
	.byte	$01
	.byte	$01
	.byte	$01
	.byte	$01
	.byte	$01
	.byte	$01
	.byte	$01
	.byte	$01
	.byte	$01
	.byte	$00
	.byte	$00
	.byte	$00
	.byte	$00
	.byte	$00
	.byte	$00
	.byte	$00
	.byte	$00
	.byte	$00
	.byte	$00
	.byte	$00
	.byte	$00
	.byte	$00
	.byte	$00
	.byte	$00
	.byte	$00
	.byte	$00
	.byte	$00
	.byte	$00
	.byte	$00
	.byte	$00
	.byte	$00
	.byte	$00
	.byte	$00
	.byte	$00
	.byte	$00
	.byte	$00
	.byte	$40
	.byte	$10
	.byte	$02
	.byte	$80
	.byte	$00
	.byte	$00
	.byte	$22
	.byte	$44
	.byte	$45
	.byte	$CC
	.byte	$FF
	.byte	$3B
	.byte	$00
	.byte	$04
	.byte	$51
	.byte	$44
	.byte	$55
	.byte	$CC
	.byte	$FF
	.byte	$FF
	.byte	$00
	.byte	$A0
	.byte	$A5
	.byte	$A4
	.byte	$A5
	.byte	$AC
	.byte	$AF
	.byte	$AF
	.byte	$A0
	.byte	$0A
	.byte	$0A
	.byte	$0A
	.byte	$0A
	.byte	$0A
	.byte	$0A
	.byte	$0A
	.byte	$0A
_palette:
	.byte	$0F
	.byte	$00
	.byte	$10
	.byte	$30
	.byte	$0F
	.byte	$18
	.byte	$28
	.byte	$38
	.byte	$0F
	.byte	$05
	.byte	$16
	.byte	$27
	.byte	$0F
	.byte	$0B
	.byte	$1A
	.byte	$29
_player_sprite_idle:
	.byte	$00
	.byte	$00
	.byte	$04
	.byte	$01
	.byte	$00
	.byte	$08
	.byte	$14
	.byte	$01
	.byte	$08
	.byte	$00
	.byte	$05
	.byte	$01
	.byte	$08
	.byte	$08
	.byte	$15
	.byte	$01
	.byte	$80
_player_sprite_walk:
	.byte	$00
	.byte	$00
	.byte	$02
	.byte	$01
	.byte	$00
	.byte	$08
	.byte	$12
	.byte	$01
	.byte	$08
	.byte	$00
	.byte	$03
	.byte	$01
	.byte	$08
	.byte	$08
	.byte	$13
	.byte	$01
	.byte	$80

.segment	"BSS"

.segment	"ZEROPAGE"
_pad1:
	.res	1,$00
_moving:
	.res	1,$00

; ---------------------------------------------------------------
; void __near__ load_level (unsigned char level)
; ---------------------------------------------------------------

.segment	"CODE"

.proc	_load_level: near

.segment	"CODE"

;
; {
;
	jsr     pusha
;
; ppu_off();
;
	jsr     _ppu_off
;
; if (level == 1) {
;
	ldy     #$00
	lda     (sp),y
	cmp     #$01
	bne     L0007
;
; vram_adr(NAMETABLE_A);
;
	ldx     #$20
	tya
	jsr     _vram_adr
;
; vram_write(level1, 1024);
;
	lda     #<(_level1)
	ldx     #>(_level1)
	jsr     pushax
	ldx     #$04
	lda     #$00
	jsr     _vram_write
;
; player_data.x = RIGHT_BOUNDARY - player_data.width; // start near right edge
;
	lda     #$F0
	sec
	sbc     _player_data+3
;
; } else if (level == 2) {
;
	jmp     L0005
L0007:	lda     (sp),y
	cmp     #$02
	bne     L0004
;
; vram_adr(NAMETABLE_A);
;
	ldx     #$20
	tya
	jsr     _vram_adr
;
; vram_write(level2, 1024);
;
	lda     #<(_level2)
	ldx     #>(_level2)
	jsr     pushax
	ldx     #$04
	lda     #$00
	jsr     _vram_write
;
; player_data.x = LEFT_BOUNDARY; // start near left edge
;
	lda     #$00
L0005:	sta     _player_data
;
; ppu_on_all();
;
L0004:	jsr     _ppu_on_all
;
; }
;
	jmp     incsp1

.endproc

; ---------------------------------------------------------------
; void __near__ draw (unsigned char isWalkFrame)
; ---------------------------------------------------------------

.segment	"CODE"

.proc	_draw: near

.segment	"CODE"

;
; {
;
	jsr     pusha
;
; oam_clear();
;
	jsr     _oam_clear
;
; if (isWalkFrame)
;
	ldy     #$00
	lda     (sp),y
	beq     L0002
;
; oam_meta_spr(player_data.x, player_data.y, player_sprite_walk);
;
	jsr     decsp2
	lda     _player_data
	iny
	sta     (sp),y
	lda     _player_data+1
	dey
	sta     (sp),y
	lda     #<(_player_sprite_walk)
	ldx     #>(_player_sprite_walk)
;
; else 
;
	jmp     L0004
;
; oam_meta_spr(player_data.x, player_data.y, player_sprite_idle);
;
L0002:	jsr     decsp2
	lda     _player_data
	iny
	sta     (sp),y
	lda     _player_data+1
	dey
	sta     (sp),y
	lda     #<(_player_sprite_idle)
	ldx     #>(_player_sprite_idle)
L0004:	jsr     _oam_meta_spr
;
; }
;
	jmp     incsp1

.endproc

; ---------------------------------------------------------------
; unsigned char __near__ move (void)
; ---------------------------------------------------------------

.segment	"CODE"

.proc	_move: near

.segment	"CODE"

;
; if (pad1 & PAD_LEFT)
;
	lda     _pad1
	and     #$02
	beq     L0006
;
; player_data.x--;
;
	dec     _player_data
;
; return 1;
;
	ldx     #$00
	lda     #$01
	rts
;
; else if (pad1 & PAD_RIGHT)
;
L0006:	lda     _pad1
	ldx     #$00
	and     #$01
	beq     L0008
;
; player_data.x++;
;
	inc     _player_data
;
; return 1;
;
	lda     #$01
	rts
;
; }
;
L0008:	rts

.endproc

; ---------------------------------------------------------------
; void __near__ main (void)
; ---------------------------------------------------------------

.segment	"CODE"

.proc	_main: near

.segment	"CODE"

;
; ppu_off();
;
	jsr     _ppu_off
;
; pal_bg(palette);
;
	lda     #<(_palette)
	ldx     #>(_palette)
	jsr     _pal_bg
;
; pal_spr(palette);
;
	lda     #<(_palette)
	ldx     #>(_palette)
	jsr     _pal_spr
;
; bank_spr(1);
;
	lda     #$01
	jsr     _bank_spr
;
; load_level(1);
;
	lda     #$01
	jsr     _load_level
;
; current_level = 1;
;
	lda     #$01
	sta     _current_level
;
; ppu_on_all();
;
	jsr     _ppu_on_all
;
; pad1 = pad_poll(0);
;
L0002:	lda     #$00
	jsr     _pad_poll
	sta     _pad1
;
; ppu_wait_nmi();
;
	jsr     _ppu_wait_nmi
;
; moving = move();
;
	jsr     _move
	sta     _moving
;
; if (current_level == 1 && player_data.x > RIGHT_BOUNDARY)
;
	lda     _current_level
	cmp     #$01
	bne     L0015
	lda     _player_data
	cmp     #$F1
	bcc     L0015
;
; current_level = 2;
;
	lda     #$02
;
; else if (current_level == 2 && player_data.x <= LEFT_BOUNDARY)
;
	jmp     L0019
L0015:	lda     _current_level
	cmp     #$02
	bne     L000A
	lda     _player_data
	bne     L000A
;
; current_level = 1;
;
	lda     #$01
L0019:	sta     _current_level
;
; load_level(1);
;
	jsr     _load_level
;
; if (moving)
;
L000A:	lda     _moving
	beq     L000E
;
; frame_counter++;
;
	inc     _frame_counter
;
; if (frame_counter >= 5)
;
	lda     _frame_counter
	cmp     #$05
	bcc     L0018
;
; frame_counter = 0;
;
	lda     #$00
	sta     _frame_counter
;
; anim_state ^= 1;
;
	lda     _anim_state
	eor     #$01
;
; else
;
	jmp     L0012
;
; frame_counter = 0;
;
L000E:	sta     _frame_counter
;
; anim_state = 0;
;
L0012:	sta     _anim_state
;
; draw(anim_state);
;
L0018:	lda     _anim_state
	jsr     _draw
;
; while(1)
;
	jmp     L0002

.endproc

